target datalayout = "e-m:e-p270:32:32-p271:32:32-p272:64:64-i64:64-i128:128-f80:128-n8:16:32:64-S128"
target triple = "x86_64-pc-linux-gnu"

%struct.AVFilterContext = type { ptr, ptr, ptr, ptr, ptr, i32, ptr, ptr, i32, ptr, ptr, i32, i32, ptr, ptr, ptr, ptr, i32, ptr, i32, i32 }
%struct.YAEPContext = type { ptr, i32, i32, i32, i32, [4 x i32], [4 x i32], i32, ptr, ptr, i32, ptr, ptr }
%struct.AVFilterLink = type { ptr, ptr, ptr, ptr, i32, i32, i32, i32, %struct.AVRational, i32, i32, i32, %struct.AVChannelLayout, %struct.AVRational, ptr, i32, %struct.AVFilterFormatsConfig, %struct.AVFilterFormatsConfig }
%struct.AVChannelLayout = type { i32, i32, %union.anon.1, ptr }
%union.anon.1 = type { i64 }
%struct.AVRational = type { i32, i32 }
%struct.AVFilterFormatsConfig = type { ptr, ptr, ptr, ptr, ptr }
%struct.AVPixFmtDescriptor = type { ptr, i8, i8, i8, i64, [4 x %struct.AVComponentDescriptor], ptr }
%struct.AVComponentDescriptor = type { i32, i32, i32, i32, i32 }

; Function Attrs: nounwind uwtable
define internal i32 @config_input(ptr noundef %0) #2 {
  %2 = alloca i32, align 4
  %3 = alloca ptr, align 8
  %4 = alloca ptr, align 8
  %5 = alloca ptr, align 8
  %6 = alloca i32, align 4
  store ptr %0, ptr %3, align 8, !tbaa !24
  call void @llvm.lifetime.start.p0(i64 8, ptr %4) #6
  %7 = load ptr, ptr %3, align 8, !tbaa !24
  %8 = getelementptr inbounds nuw %struct.AVFilterLink, ptr %7, i32 0, i32 2
  %9 = load ptr, ptr %8, align 8, !tbaa !28
  %10 = getelementptr inbounds nuw %struct.AVFilterContext, ptr %9, i32 0, i32 9
  %11 = load ptr, ptr %10, align 8, !tbaa !9
  store ptr %11, ptr %4, align 8, !tbaa !22
  call void @llvm.lifetime.start.p0(i64 8, ptr %5) #6
  %12 = load ptr, ptr %3, align 8, !tbaa !24
  %13 = getelementptr inbounds nuw %struct.AVFilterLink, ptr %12, i32 0, i32 5
  %14 = load i32, ptr %13, align 4, !tbaa !58
  %15 = call ptr @av_pix_fmt_desc_get(i32 noundef %14)
  store ptr %15, ptr %5, align 8, !tbaa !59
  %16 = load ptr, ptr %5, align 8, !tbaa !59
  %17 = getelementptr inbounds nuw %struct.AVPixFmtDescriptor, ptr %16, i32 0, i32 5
  %18 = getelementptr inbounds [4 x %struct.AVComponentDescriptor], ptr %17, i64 0, i64 0
  %19 = getelementptr inbounds nuw %struct.AVComponentDescriptor, ptr %18, i32 0, i32 4
  %20 = load i32, ptr %19, align 8, !tbaa !61
  %21 = load ptr, ptr %4, align 8, !tbaa !22
  %22 = getelementptr inbounds nuw %struct.YAEPContext, ptr %21, i32 0, i32 7
  store i32 %20, ptr %22, align 8, !tbaa !46
  %23 = load ptr, ptr %5, align 8, !tbaa !59
  %24 = getelementptr inbounds nuw %struct.AVPixFmtDescriptor, ptr %23, i32 0, i32 2
  %25 = load i8, ptr %24, align 1, !tbaa !63
  %26 = call i1 @llvm.is.constant.i8(i8 %25)
  br i1 %26, label %38, label %27

27:                                               ; preds = %1
  %28 = load ptr, ptr %3, align 8, !tbaa !24
  %29 = getelementptr inbounds nuw %struct.AVFilterLink, ptr %28, i32 0, i32 6
  %30 = load i32, ptr %29, align 8, !tbaa !38
  %31 = sub nsw i32 0, %30
  %32 = load ptr, ptr %5, align 8, !tbaa !59
  %33 = getelementptr inbounds nuw %struct.AVPixFmtDescriptor, ptr %32, i32 0, i32 2
  %34 = load i8, ptr %33, align 1, !tbaa !63
  %35 = zext i8 %34 to i32
  %36 = ashr i32 %31, %35
  %37 = sub nsw i32 0, %36
  br label %54

38:                                               ; preds = %1
  %39 = load ptr, ptr %3, align 8, !tbaa !24
  %40 = getelementptr inbounds nuw %struct.AVFilterLink, ptr %39, i32 0, i32 6
  %41 = load i32, ptr %40, align 8, !tbaa !38
  %42 = load ptr, ptr %5, align 8, !tbaa !59
  %43 = getelementptr inbounds nuw %struct.AVPixFmtDescriptor, ptr %42, i32 0, i32 2
  %44 = load i8, ptr %43, align 1, !tbaa !63
  %45 = zext i8 %44 to i32
  %46 = shl i32 1, %45
  %47 = add nsw i32 %41, %46
  %48 = sub nsw i32 %47, 1
  %49 = load ptr, ptr %5, align 8, !tbaa !59
  %50 = getelementptr inbounds nuw %struct.AVPixFmtDescriptor, ptr %49, i32 0, i32 2
  %51 = load i8, ptr %50, align 1, !tbaa !63
  %52 = zext i8 %51 to i32
  %53 = ashr i32 %48, %52
  br label %54

54:                                               ; preds = %38, %27
  %55 = phi i32 [ %37, %27 ], [ %53, %38 ]
  %56 = load ptr, ptr %4, align 8, !tbaa !22
  %57 = getelementptr inbounds nuw %struct.YAEPContext, ptr %56, i32 0, i32 5
  %58 = getelementptr inbounds [4 x i32], ptr %57, i64 0, i64 2
  store i32 %55, ptr %58, align 8, !tbaa !37
  %59 = load ptr, ptr %4, align 8, !tbaa !22
  %60 = getelementptr inbounds nuw %struct.YAEPContext, ptr %59, i32 0, i32 5
  %61 = getelementptr inbounds [4 x i32], ptr %60, i64 0, i64 1
  store i32 %55, ptr %61, align 4, !tbaa !37
  %62 = load ptr, ptr %3, align 8, !tbaa !24
  %63 = getelementptr inbounds nuw %struct.AVFilterLink, ptr %62, i32 0, i32 6
  %64 = load i32, ptr %63, align 8, !tbaa !38
  %65 = load ptr, ptr %4, align 8, !tbaa !22
  %66 = getelementptr inbounds nuw %struct.YAEPContext, ptr %65, i32 0, i32 5
  %67 = getelementptr inbounds [4 x i32], ptr %66, i64 0, i64 3
  store i32 %64, ptr %67, align 4, !tbaa !37
  %68 = load ptr, ptr %4, align 8, !tbaa !22
  %69 = getelementptr inbounds nuw %struct.YAEPContext, ptr %68, i32 0, i32 5
  %70 = getelementptr inbounds [4 x i32], ptr %69, i64 0, i64 0
  store i32 %64, ptr %70, align 8, !tbaa !37
  %71 = load ptr, ptr %5, align 8, !tbaa !59
  %72 = getelementptr inbounds nuw %struct.AVPixFmtDescriptor, ptr %71, i32 0, i32 3
  %73 = load i8, ptr %72, align 2, !tbaa !66
  %74 = call i1 @llvm.is.constant.i8(i8 %73)
  br i1 %74, label %86, label %75

75:                                               ; preds = %54
  %76 = load ptr, ptr %3, align 8, !tbaa !24
  %77 = getelementptr inbounds nuw %struct.AVFilterLink, ptr %76, i32 0, i32 7
  %78 = load i32, ptr %77, align 4, !tbaa !39
  %79 = sub nsw i32 0, %78
  %80 = load ptr, ptr %5, align 8, !tbaa !59
  %81 = getelementptr inbounds nuw %struct.AVPixFmtDescriptor, ptr %80, i32 0, i32 3
  %82 = load i8, ptr %81, align 2, !tbaa !66
  %83 = zext i8 %82 to i32
  %84 = ashr i32 %79, %83
  %85 = sub nsw i32 0, %84
  br label %102

86:                                               ; preds = %54
  %87 = load ptr, ptr %3, align 8, !tbaa !24
  %88 = getelementptr inbounds nuw %struct.AVFilterLink, ptr %87, i32 0, i32 7
  %89 = load i32, ptr %88, align 4, !tbaa !39
  %90 = load ptr, ptr %5, align 8, !tbaa !59
  %91 = getelementptr inbounds nuw %struct.AVPixFmtDescriptor, ptr %90, i32 0, i32 3
  %92 = load i8, ptr %91, align 2, !tbaa !66
  %93 = zext i8 %92 to i32
  %94 = shl i32 1, %93
  %95 = add nsw i32 %89, %94
  %96 = sub nsw i32 %95, 1
  %97 = load ptr, ptr %5, align 8, !tbaa !59
  %98 = getelementptr inbounds nuw %struct.AVPixFmtDescriptor, ptr %97, i32 0, i32 3
  %99 = load i8, ptr %98, align 2, !tbaa !66
  %100 = zext i8 %99 to i32
  %101 = ashr i32 %96, %100
  br label %102

102:                                              ; preds = %86, %75
  %103 = phi i32 [ %85, %75 ], [ %101, %86 ]
  %104 = load ptr, ptr %4, align 8, !tbaa !22
  %105 = getelementptr inbounds nuw %struct.YAEPContext, ptr %104, i32 0, i32 6
  %106 = getelementptr inbounds [4 x i32], ptr %105, i64 0, i64 2
  store i32 %103, ptr %106, align 8, !tbaa !37
  %107 = load ptr, ptr %4, align 8, !tbaa !22
  %108 = getelementptr inbounds nuw %struct.YAEPContext, ptr %107, i32 0, i32 6
  %109 = getelementptr inbounds [4 x i32], ptr %108, i64 0, i64 1
  store i32 %103, ptr %109, align 4, !tbaa !37
  %110 = load ptr, ptr %3, align 8, !tbaa !24
  %111 = getelementptr inbounds nuw %struct.AVFilterLink, ptr %110, i32 0, i32 7
  %112 = load i32, ptr %111, align 4, !tbaa !39
  %113 = load ptr, ptr %4, align 8, !tbaa !22
  %114 = getelementptr inbounds nuw %struct.YAEPContext, ptr %113, i32 0, i32 6
  %115 = getelementptr inbounds [4 x i32], ptr %114, i64 0, i64 3
  store i32 %112, ptr %115, align 4, !tbaa !37
  %116 = load ptr, ptr %4, align 8, !tbaa !22
  %117 = getelementptr inbounds nuw %struct.YAEPContext, ptr %116, i32 0, i32 6
  %118 = getelementptr inbounds [4 x i32], ptr %117, i64 0, i64 0
  store i32 %112, ptr %118, align 8, !tbaa !37
  %119 = load ptr, ptr %3, align 8, !tbaa !24
  %120 = getelementptr inbounds nuw %struct.AVFilterLink, ptr %119, i32 0, i32 5
  %121 = load i32, ptr %120, align 4, !tbaa !58
  %122 = call i32 @av_pix_fmt_count_planes(i32 noundef %121)
  %123 = load ptr, ptr %4, align 8, !tbaa !22
  %124 = getelementptr inbounds nuw %struct.YAEPContext, ptr %123, i32 0, i32 4
  store i32 %122, ptr %124, align 4, !tbaa !40
  %125 = load ptr, ptr %4, align 8, !tbaa !22
  %126 = getelementptr inbounds nuw %struct.YAEPContext, ptr %125, i32 0, i32 2
  %127 = load i32, ptr %126, align 4, !tbaa !43
  %128 = load ptr, ptr %3, align 8, !tbaa !24
  %129 = getelementptr inbounds nuw %struct.AVFilterLink, ptr %128, i32 0, i32 6
  %130 = load i32, ptr %129, align 8, !tbaa !38
  %131 = load ptr, ptr %3, align 8, !tbaa !24
  %132 = getelementptr inbounds nuw %struct.AVFilterLink, ptr %131, i32 0, i32 7
  %133 = load i32, ptr %132, align 4, !tbaa !39
  %134 = icmp sgt i32 %130, %133
  br i1 %134, label %135, label %139

135:                                              ; preds = %102
  %136 = load ptr, ptr %3, align 8, !tbaa !24
  %137 = getelementptr inbounds nuw %struct.AVFilterLink, ptr %136, i32 0, i32 7
  %138 = load i32, ptr %137, align 4, !tbaa !39
  br label %143

139:                                              ; preds = %102
  %140 = load ptr, ptr %3, align 8, !tbaa !24
  %141 = getelementptr inbounds nuw %struct.AVFilterLink, ptr %140, i32 0, i32 6
  %142 = load i32, ptr %141, align 8, !tbaa !38
  br label %143

143:                                              ; preds = %139, %135
  %144 = phi i32 [ %138, %135 ], [ %142, %139 ]
  %145 = add nsw i32 %144, 2
  %146 = sub nsw i32 %145, 1
  %147 = ashr i32 %146, 1
  %148 = icmp sgt i32 %127, %147
  br i1 %148, label %149, label %170

149:                                              ; preds = %143
  %150 = load ptr, ptr %3, align 8, !tbaa !24
  %151 = getelementptr inbounds nuw %struct.AVFilterLink, ptr %150, i32 0, i32 6
  %152 = load i32, ptr %151, align 8, !tbaa !38
  %153 = load ptr, ptr %3, align 8, !tbaa !24
  %154 = getelementptr inbounds nuw %struct.AVFilterLink, ptr %153, i32 0, i32 7
  %155 = load i32, ptr %154, align 4, !tbaa !39
  %156 = icmp sgt i32 %152, %155
  br i1 %156, label %157, label %161

157:                                              ; preds = %149
  %158 = load ptr, ptr %3, align 8, !tbaa !24
  %159 = getelementptr inbounds nuw %struct.AVFilterLink, ptr %158, i32 0, i32 7
  %160 = load i32, ptr %159, align 4, !tbaa !39
  br label %165

161:                                              ; preds = %149
  %162 = load ptr, ptr %3, align 8, !tbaa !24
  %163 = getelementptr inbounds nuw %struct.AVFilterLink, ptr %162, i32 0, i32 6
  %164 = load i32, ptr %163, align 8, !tbaa !38
  br label %165

165:                                              ; preds = %161, %157
  %166 = phi i32 [ %160, %157 ], [ %164, %161 ]
  %167 = add nsw i32 %166, 2
  %168 = sub nsw i32 %167, 1
  %169 = ashr i32 %168, 1
  br label %174

170:                                              ; preds = %143
  %171 = load ptr, ptr %4, align 8, !tbaa !22
  %172 = getelementptr inbounds nuw %struct.YAEPContext, ptr %171, i32 0, i32 2
  %173 = load i32, ptr %172, align 4, !tbaa !43
  br label %174

174:                                              ; preds = %170, %165
  %175 = phi i32 [ %169, %165 ], [ %173, %170 ]
  %176 = load ptr, ptr %4, align 8, !tbaa !22
  %177 = getelementptr inbounds nuw %struct.YAEPContext, ptr %176, i32 0, i32 2
  store i32 %175, ptr %177, align 4, !tbaa !43
  %178 = load ptr, ptr %4, align 8, !tbaa !22
  %179 = getelementptr inbounds nuw %struct.YAEPContext, ptr %178, i32 0, i32 7
  %180 = load i32, ptr %179, align 8, !tbaa !46
  %181 = icmp sle i32 %180, 8
  br i1 %181, label %182, label %187

182:                                              ; preds = %174
  %183 = load ptr, ptr %4, align 8, !tbaa !22
  %184 = getelementptr inbounds nuw %struct.YAEPContext, ptr %183, i32 0, i32 11
  store ptr @pre_calculate_row_byte, ptr %184, align 8, !tbaa !52
  %185 = load ptr, ptr %4, align 8, !tbaa !22
  %186 = getelementptr inbounds nuw %struct.YAEPContext, ptr %185, i32 0, i32 12
  store ptr @filter_slice_byte, ptr %186, align 8, !tbaa !55
  br label %192

187:                                              ; preds = %174
  %188 = load ptr, ptr %4, align 8, !tbaa !22
  %189 = getelementptr inbounds nuw %struct.YAEPContext, ptr %188, i32 0, i32 11
  store ptr @pre_calculate_row_word, ptr %189, align 8, !tbaa !52
  %190 = load ptr, ptr %4, align 8, !tbaa !22
  %191 = getelementptr inbounds nuw %struct.YAEPContext, ptr %190, i32 0, i32 12
  store ptr @filter_slice_word, ptr %191, align 8, !tbaa !55
  br label %192

192:                                              ; preds = %187, %182
  %193 = load ptr, ptr %3, align 8, !tbaa !24
  %194 = getelementptr inbounds nuw %struct.AVFilterLink, ptr %193, i32 0, i32 6
  %195 = load i32, ptr %194, align 8, !tbaa !38
  %196 = add nsw i32 %195, 1
  %197 = load ptr, ptr %4, align 8, !tbaa !22
  %198 = getelementptr inbounds nuw %struct.YAEPContext, ptr %197, i32 0, i32 10
  store i32 %196, ptr %198, align 8, !tbaa !67
  %199 = load ptr, ptr %3, align 8, !tbaa !24
  %200 = getelementptr inbounds nuw %struct.AVFilterLink, ptr %199, i32 0, i32 7
  %201 = load i32, ptr %200, align 4, !tbaa !39
  %202 = add nsw i32 %201, 1
  %203 = sext i32 %202 to i64
  %204 = load ptr, ptr %4, align 8, !tbaa !22
  %205 = getelementptr inbounds nuw %struct.YAEPContext, ptr %204, i32 0, i32 10
  %206 = load i32, ptr %205, align 8, !tbaa !67
  %207 = sext i32 %206 to i64
  %208 = mul i64 %207, 8
  %209 = call noalias ptr @av_calloc(i64 noundef %203, i64 noundef %208)
  %210 = load ptr, ptr %4, align 8, !tbaa !22
  %211 = getelementptr inbounds nuw %struct.YAEPContext, ptr %210, i32 0, i32 8
  store ptr %209, ptr %211, align 8, !tbaa !68
  %212 = load ptr, ptr %4, align 8, !tbaa !22
  %213 = getelementptr inbounds nuw %struct.YAEPContext, ptr %212, i32 0, i32 8
  %214 = load ptr, ptr %213, align 8, !tbaa !68
  %215 = icmp ne ptr %214, null
  br i1 %215, label %217, label %216

216:                                              ; preds = %192
  store i32 -12, ptr %2, align 4
  store i32 1, ptr %6, align 4
  br label %237

217:                                              ; preds = %192
  %218 = load ptr, ptr %3, align 8, !tbaa !24
  %219 = getelementptr inbounds nuw %struct.AVFilterLink, ptr %218, i32 0, i32 7
  %220 = load i32, ptr %219, align 4, !tbaa !39
  %221 = add nsw i32 %220, 1
  %222 = sext i32 %221 to i64
  %223 = load ptr, ptr %4, align 8, !tbaa !22
  %224 = getelementptr inbounds nuw %struct.YAEPContext, ptr %223, i32 0, i32 10
  %225 = load i32, ptr %224, align 8, !tbaa !67
  %226 = sext i32 %225 to i64
  %227 = mul i64 %226, 8
  %228 = call noalias ptr @av_calloc(i64 noundef %222, i64 noundef %227)
  %229 = load ptr, ptr %4, align 8, !tbaa !22
  %230 = getelementptr inbounds nuw %struct.YAEPContext, ptr %229, i32 0, i32 9
  store ptr %228, ptr %230, align 8, !tbaa !69
  %231 = load ptr, ptr %4, align 8, !tbaa !22
  %232 = getelementptr inbounds nuw %struct.YAEPContext, ptr %231, i32 0, i32 9
  %233 = load ptr, ptr %232, align 8, !tbaa !69
  %234 = icmp ne ptr %233, null
  br i1 %234, label %236, label %235

235:                                              ; preds = %217
  store i32 -12, ptr %2, align 4
  store i32 1, ptr %6, align 4
  br label %237

236:                                              ; preds = %217
  store i32 0, ptr %2, align 4
  store i32 1, ptr %6, align 4
  br label %237

237:                                              ; preds = %236, %235, %216
  call void @llvm.lifetime.end.p0(i64 8, ptr %5) #6
  call void @llvm.lifetime.end.p0(i64 8, ptr %4) #6
  %238 = load i32, ptr %2, align 4
  ret i32 %238
}