; Function Attrs: nounwind uwtable
define internal range(i32 -12, 1) i32 @config_input(ptr noundef readonly captures(none) %0) #2 {
  %2 = getelementptr inbounds nuw i8, ptr %0, i64 16
  %3 = load ptr, ptr %2, align 8, !tbaa !22
  %4 = getelementptr inbounds nuw i8, ptr %3, i64 72
  %5 = load ptr, ptr %4, align 8, !tbaa !4
  %6 = getelementptr inbounds nuw i8, ptr %0, i64 36
  %7 = load i32, ptr %6, align 4, !tbaa !55
  %8 = tail call ptr @av_pix_fmt_desc_get(i32 noundef %7) #7
  %9 = getelementptr inbounds nuw i8, ptr %8, i64 40
  %10 = load i32, ptr %9, align 8, !tbaa !56
  %11 = getelementptr inbounds nuw i8, ptr %5, i64 56
  store i32 %10, ptr %11, align 8, !tbaa !43
  %12 = getelementptr inbounds nuw i8, ptr %0, i64 40
  %13 = load i32, ptr %12, align 8, !tbaa !34
  %14 = sub nsw i32 0, %13
  %15 = getelementptr inbounds nuw i8, ptr %8, i64 9
  %16 = load i8, ptr %15, align 1, !tbaa !58
  %17 = zext nneg i8 %16 to i32
  %18 = ashr i32 %14, %17
  %19 = sub nsw i32 0, %18
  %20 = getelementptr inbounds nuw i8, ptr %5, i64 24
  %21 = getelementptr inbounds nuw i8, ptr %5, i64 32
  store i32 %19, ptr %21, align 8, !tbaa !42
  %22 = getelementptr inbounds nuw i8, ptr %5, i64 28
  store i32 %19, ptr %22, align 4, !tbaa !42
  %23 = getelementptr inbounds nuw i8, ptr %0, i64 40
  %24 = load i32, ptr %23, align 8, !tbaa !34
  %25 = getelementptr inbounds nuw i8, ptr %5, i64 36
  store i32 %24, ptr %25, align 4, !tbaa !42
  store i32 %24, ptr %20, align 8, !tbaa !42
  %26 = getelementptr inbounds nuw i8, ptr %0, i64 44
  %27 = load i32, ptr %26, align 4, !tbaa !35
  %28 = sub nsw i32 0, %27
  %29 = getelementptr inbounds nuw i8, ptr %8, i64 10
  %30 = load i8, ptr %29, align 2, !tbaa !61
  %31 = zext nneg i8 %30 to i32
  %32 = ashr i32 %28, %31
  %33 = sub nsw i32 0, %32
  %34 = getelementptr inbounds nuw i8, ptr %5, i64 40
  %35 = getelementptr inbounds nuw i8, ptr %5, i64 48
  store i32 %33, ptr %35, align 8, !tbaa !42
  %36 = getelementptr inbounds nuw i8, ptr %5, i64 44
  store i32 %33, ptr %36, align 4, !tbaa !42
  %37 = getelementptr inbounds nuw i8, ptr %0, i64 44
  %38 = load i32, ptr %37, align 4, !tbaa !35
  %39 = getelementptr inbounds nuw i8, ptr %5, i64 52
  store i32 %38, ptr %39, align 4, !tbaa !42
  store i32 %38, ptr %34, align 8, !tbaa !42
  %40 = load i32, ptr %6, align 4, !tbaa !55
  %41 = tail call i32 @av_pix_fmt_count_planes(i32 noundef %40) #7
  %42 = getelementptr inbounds nuw i8, ptr %5, i64 20
  store i32 %41, ptr %42, align 4, !tbaa !36
  %43 = getelementptr inbounds nuw i8, ptr %5, i64 12
  %44 = load i32, ptr %43, align 4, !tbaa !39
  %45 = load i32, ptr %23, align 8, !tbaa !34
  %46 = load i32, ptr %37, align 4, !tbaa !35
  %. = tail call i32 @llvm.smin.i32(i32 %45, i32 %46)
  %47 = add nsw i32 %., 1
  %48 = ashr i32 %47, 1
  %spec.select = tail call i32 @llvm.smin.i32(i32 %44, i32 %48)
  store i32 %spec.select, ptr %43, align 4, !tbaa !39
  %49 = load i32, ptr %11, align 8, !tbaa !43
  %50 = icmp slt i32 %49, 9
  %spec.select62 = select i1 %50, ptr @pre_calculate_row_byte, ptr @pre_calculate_row_word
  %spec.select63 = select i1 %50, ptr @filter_slice_byte, ptr @filter_slice_word
  %51 = getelementptr inbounds nuw i8, ptr %5, i64 88
  store ptr %spec.select62, ptr %51, align 8, !tbaa !49
  %52 = getelementptr inbounds nuw i8, ptr %5, i64 96
  store ptr %spec.select63, ptr %52, align 8, !tbaa !52
  %53 = add nsw i32 %45, 1
  %54 = getelementptr inbounds nuw i8, ptr %5, i64 80
  store i32 %53, ptr %54, align 8, !tbaa !62
  %55 = add nsw i32 %46, 1
  %56 = sext i32 %55 to i64
  %57 = sext i32 %53 to i64
  %58 = shl nsw i64 %57, 3
  %59 = tail call noalias ptr @av_calloc(i64 noundef %56, i64 noundef %58) #7
  %60 = getelementptr inbounds nuw i8, ptr %5, i64 64
  store ptr %59, ptr %60, align 8, !tbaa !63
  %.not = icmp eq ptr %59, null
  br i1 %.not, label %70, label %61

61:                                               ; preds = %1
  %62 = load i32, ptr %37, align 4, !tbaa !35
  %63 = add nsw i32 %62, 1
  %64 = sext i32 %63 to i64
  %65 = load i32, ptr %54, align 8, !tbaa !62
  %66 = sext i32 %65 to i64
  %67 = shl nsw i64 %66, 3
  %68 = tail call noalias ptr @av_calloc(i64 noundef %64, i64 noundef %67) #7
  %69 = getelementptr inbounds nuw i8, ptr %5, i64 72
  store ptr %68, ptr %69, align 8, !tbaa !64
  %.not58 = icmp eq ptr %68, null
  %.60 = select i1 %.not58, i32 -12, i32 0
  br label %70

70:                                               ; preds = %61, %1
  %.0 = phi i32 [ -12, %1 ], [ %.60, %61 ]
  ret i32 %.0
}